target datalayout = "e-m:e-p270:32:32-p271:32:32-p272:64:64-i64:64-i128:128-f80:128-n8:16:32:64-S128"
target triple = "x86_64-pc-linux-gnu"

%struct.pmix_tma = type { ptr, ptr, ptr, ptr, ptr, ptr, ptr, ptr }
%struct.pmix_value = type { i16, %union.anon }
%union.anon = type { %struct.pmix_envar_t }
%struct.pmix_envar_t = type { ptr, ptr, i8 }
%struct.pmix_info = type { [512 x i8], i32, %struct.pmix_value }

; Function Attrs: inlinehint nounwind uwtable
define internal void @pmix_strncpy(ptr noundef %0, ptr noundef %1, i64 noundef %2) #8 {
  %4 = alloca ptr, align 8
  %5 = alloca ptr, align 8
  %6 = alloca i64, align 8
  %7 = alloca i64, align 8
  store ptr %0, ptr %4, align 8, !tbaa !14
  store ptr %1, ptr %5, align 8, !tbaa !14
  store i64 %2, ptr %6, align 8, !tbaa !58
  call void @llvm.lifetime.start.p0(i64 8, ptr %7) #15
  store i64 0, ptr %7, align 8, !tbaa !58
  br label %8

8:                                                ; preds = %22, %3
  %9 = load i64, ptr %7, align 8, !tbaa !58
  %10 = load i64, ptr %6, align 8, !tbaa !58
  %11 = icmp ult i64 %9, %10
  br i1 %11, label %12, label %29

12:                                               ; preds = %8
  %13 = load ptr, ptr %5, align 8, !tbaa !14
  %14 = load i8, ptr %13, align 1, !tbaa !13
  %15 = load ptr, ptr %4, align 8, !tbaa !14
  store i8 %14, ptr %15, align 1, !tbaa !13
  %16 = load ptr, ptr %5, align 8, !tbaa !14
  %17 = load i8, ptr %16, align 1, !tbaa !13
  %18 = sext i8 %17 to i32
  %19 = icmp eq i32 0, %18
  br i1 %19, label %20, label %21

20:                                               ; preds = %12
  br label %29

21:                                               ; preds = %12
  br label %22

22:                                               ; preds = %21
  %23 = load i64, ptr %7, align 8, !tbaa !58
  %24 = add i64 %23, 1
  store i64 %24, ptr %7, align 8, !tbaa !58
  %25 = load ptr, ptr %5, align 8, !tbaa !14
  %26 = getelementptr inbounds nuw i8, ptr %25, i32 1
  store ptr %26, ptr %5, align 8, !tbaa !14
  %27 = load ptr, ptr %4, align 8, !tbaa !14
  %28 = getelementptr inbounds nuw i8, ptr %27, i32 1
  store ptr %28, ptr %4, align 8, !tbaa !14
  br label %8, !llvm.loop !323

29:                                               ; preds = %20, %8
  %30 = load ptr, ptr %4, align 8, !tbaa !14
  store i8 0, ptr %30, align 1, !tbaa !13
  call void @llvm.lifetime.end.p0(i64 8, ptr %7) #15
  ret void
}

; Function Attrs: inlinehint nounwind uwtable
define internal void @pmix_bfrops_base_tma_value_construct(ptr noundef %0, ptr noundef %1) #8 {
  %3 = alloca ptr, align 8
  %4 = alloca ptr, align 8
  store ptr %0, ptr %3, align 8, !tbaa !3
  store ptr %1, ptr %4, align 8, !tbaa !66
  %5 = load ptr, ptr %3, align 8, !tbaa !3
  call void @llvm.memset.p0.i64(ptr align 8 %5, i8 0, i64 32, i1 false)
  %6 = load ptr, ptr %3, align 8, !tbaa !3
  %7 = getelementptr inbounds nuw %struct.pmix_value, ptr %6, i32 0, i32 0
  store i16 0, ptr %7, align 8, !tbaa !11
  ret void
}

; Function Attrs: inlinehint nounwind uwtable
define internal void @pmix_bfrops_base_tma_load_key(ptr noundef %0, ptr noundef %1, ptr noundef %2) #8 {
  %4 = alloca ptr, align 8
  %5 = alloca ptr, align 8
  %6 = alloca ptr, align 8
  store ptr %0, ptr %4, align 8, !tbaa !14
  store ptr %1, ptr %5, align 8, !tbaa !14
  store ptr %2, ptr %6, align 8, !tbaa !66
  %7 = load ptr, ptr %4, align 8, !tbaa !14
  call void @llvm.memset.p0.i64(ptr align 1 %7, i8 0, i64 512, i1 false)
  %8 = load ptr, ptr %5, align 8, !tbaa !14
  %9 = icmp ne ptr null, %8
  br i1 %9, label %10, label %13

10:                                               ; preds = %3
  %11 = load ptr, ptr %4, align 8, !tbaa !14
  %12 = load ptr, ptr %5, align 8, !tbaa !14
  call void @pmix_strncpy(ptr noundef %11, ptr noundef %12, i64 noundef 511)
  br label %13

13:                                               ; preds = %10, %3
  ret void
}

; Function Attrs: inlinehint nounwind uwtable
define internal void @pmix_bfrops_base_tma_info_construct(ptr noundef %0, ptr noundef %1) #8 {
  %3 = alloca ptr, align 8
  %4 = alloca ptr, align 8
  store ptr %0, ptr %3, align 8, !tbaa !136
  store ptr %1, ptr %4, align 8, !tbaa !66
  %5 = load ptr, ptr %3, align 8, !tbaa !136
  %6 = getelementptr inbounds nuw %struct.pmix_info, ptr %5, i32 0, i32 0
  %7 = getelementptr inbounds [512 x i8], ptr %6, i64 0, i64 0
  %8 = load ptr, ptr %4, align 8, !tbaa !66
  call void @pmix_bfrops_base_tma_load_key(ptr noundef %7, ptr noundef null, ptr noundef %8)
  %9 = load ptr, ptr %3, align 8, !tbaa !136
  %10 = getelementptr inbounds nuw %struct.pmix_info, ptr %9, i32 0, i32 1
  store i32 0, ptr %10, align 8, !tbaa !248
  %11 = load ptr, ptr %3, align 8, !tbaa !136
  %12 = getelementptr inbounds nuw %struct.pmix_info, ptr %11, i32 0, i32 2
  %13 = load ptr, ptr %4, align 8, !tbaa !66
  call void @pmix_bfrops_base_tma_value_construct(ptr noundef %12, ptr noundef %13)
  ret void
}

; Function Attrs: inlinehint nounwind uwtable
define internal ptr @pmix_tma_malloc(ptr noundef %0, i64 noundef %1) #8 {
  %3 = alloca ptr, align 8
  %4 = alloca ptr, align 8
  %5 = alloca i64, align 8
  store ptr %0, ptr %4, align 8, !tbaa !66
  store i64 %1, ptr %5, align 8, !tbaa !58
  %6 = load ptr, ptr %4, align 8, !tbaa !66
  %7 = icmp ne ptr null, %6
  br i1 %7, label %8, label %15

8:                                                ; preds = %2
  %9 = load ptr, ptr %4, align 8, !tbaa !66
  %10 = getelementptr inbounds nuw %struct.pmix_tma, ptr %9, i32 0, i32 0
  %11 = load ptr, ptr %10, align 8, !tbaa !265
  %12 = load ptr, ptr %4, align 8, !tbaa !66
  %13 = load i64, ptr %5, align 8, !tbaa !58
  %14 = call ptr %11(ptr noundef %12, i64 noundef %13)
  store ptr %14, ptr %3, align 8
  br label %18

15:                                               ; preds = %2
  %16 = load i64, ptr %5, align 8, !tbaa !58
  %17 = call noalias ptr @malloc(i64 noundef %16) #16
  store ptr %17, ptr %3, align 8
  br label %18

18:                                               ; preds = %15, %8
  %19 = load ptr, ptr %3, align 8
  ret ptr %19
}

; Function Attrs: inlinehint nounwind uwtable
define internal ptr @pmix_bfrops_base_tma_info_create(i64 noundef %0, ptr noundef %1) #8 {
  %3 = alloca ptr, align 8
  %4 = alloca i64, align 8
  %5 = alloca ptr, align 8
  %6 = alloca ptr, align 8
  %7 = alloca i32, align 4
  %8 = alloca i64, align 8
  store i64 %0, ptr %4, align 8, !tbaa !58
  store ptr %1, ptr %5, align 8, !tbaa !66
  %9 = load i64, ptr %4, align 8, !tbaa !58
  %10 = icmp eq i64 0, %9
  br i1 %10, label %11, label %12

11:                                               ; preds = %2
  store ptr null, ptr %3, align 8
  br label %43

12:                                               ; preds = %2
  call void @llvm.lifetime.start.p0(i64 8, ptr %6) #15
  %13 = load ptr, ptr %5, align 8, !tbaa !66
  %14 = load i64, ptr %4, align 8, !tbaa !58
  %15 = mul i64 %14, 552
  %16 = call ptr @pmix_tma_malloc(ptr noundef %13, i64 noundef %15)
  store ptr %16, ptr %6, align 8, !tbaa !136
  %17 = load ptr, ptr %6, align 8, !tbaa !136
  %18 = icmp eq ptr null, %17
  %19 = xor i1 %18, true
  %20 = xor i1 %19, true
  %21 = zext i1 %20 to i32
  %22 = sext i32 %21 to i64
  %23 = call i64 @llvm.expect.i64(i64 %22, i64 0)
  %24 = icmp ne i64 %23, 0
  br i1 %24, label %25, label %26

25:                                               ; preds = %12
  store ptr null, ptr %3, align 8
  store i32 1, ptr %7, align 4
  br label %42

26:                                               ; preds = %12
  call void @llvm.lifetime.start.p0(i64 8, ptr %8) #15
  store i64 0, ptr %8, align 8, !tbaa !58
  br label %27

27:                                               ; preds = %37, %26
  %28 = load i64, ptr %8, align 8, !tbaa !58
  %29 = load i64, ptr %4, align 8, !tbaa !58
  %30 = icmp ult i64 %28, %29
  br i1 %30, label %32, label %31

31:                                               ; preds = %27
  store i32 2, ptr %7, align 4
  call void @llvm.lifetime.end.p0(i64 8, ptr %8) #15
  br label %40

32:                                               ; preds = %27
  %33 = load ptr, ptr %6, align 8, !tbaa !136
  %34 = load i64, ptr %8, align 8, !tbaa !58
  %35 = getelementptr inbounds nuw %struct.pmix_info, ptr %33, i64 %34
  %36 = load ptr, ptr %5, align 8, !tbaa !66
  call void @pmix_bfrops_base_tma_info_construct(ptr noundef %35, ptr noundef %36)
  br label %37

37:                                               ; preds = %32
  %38 = load i64, ptr %8, align 8, !tbaa !58
  %39 = add i64 %38, 1
  store i64 %39, ptr %8, align 8, !tbaa !58
  br label %27, !llvm.loop !329

40:                                               ; preds = %31
  %41 = load ptr, ptr %6, align 8, !tbaa !136
  store ptr %41, ptr %3, align 8
  store i32 1, ptr %7, align 4
  br label %42

42:                                               ; preds = %40, %25
  call void @llvm.lifetime.end.p0(i64 8, ptr %6) #15
  br label %43

43:                                               ; preds = %42, %11
  %44 = load ptr, ptr %3, align 8
  ret ptr %44
}