; Function Attrs: inlinehint nofree nounwind memory(write, argmem: none, inaccessiblemem: readwrite) uwtable
define internal fastcc noalias noundef ptr @pmix_bfrops_base_tma_info_create(i64 noundef %0) unnamed_addr #14 {
  %2 = icmp eq i64 %0, 0
  br i1 %2, label %.loopexit, label %3

3:                                                ; preds = %1
  %4 = mul i64 %0, 552
  %5 = tail call noalias noundef ptr @malloc(i64 noundef %4) #25
  %6 = icmp eq ptr %5, null
  br i1 %6, label %.loopexit, label %.preheader, !prof !116

.preheader:                                       ; preds = %3, %.preheader
  %.01 = phi i64 [ %9, %.preheader ], [ 0, %3 ]
  %7 = getelementptr inbounds nuw %struct.pmix_info, ptr %5, i64 %.01
  %8 = getelementptr inbounds nuw i8, ptr %7, i64 520
  tail call void @llvm.memset.p0.i64(ptr noundef nonnull align 8 dereferenceable(32) %8, i8 0, i64 32, i1 false)
  tail call void @llvm.memset.p0.i64(ptr noundef nonnull align 1 dereferenceable(516) %7, i8 0, i64 516, i1 false)
  %9 = add nuw i64 %.01, 1
  %exitcond.not = icmp eq i64 %9, %0
  br i1 %exitcond.not, label %.loopexit, label %.preheader, !llvm.loop !215

.loopexit:                                        ; preds = %.preheader, %3, %1
  %.011 = phi ptr [ null, %1 ], [ null, %3 ], [ %5, %.preheader ]
  ret ptr %.011
}